	.file	"stackoverflow.c"
	.text
	.globl	numero
	.data
	.align 4
	.type	numero, @object
	.size	numero, 4
numero:
	.long	100
	.globl	nome
	.align 16
	.type	nome, @object
	.size	nome, 16
nome:
	.string	"Franco"
	.zero	9
	.section	.rodata
.LC0:
	.string	"Username: "
	.text
	.globl	login
	.type	login, @function
login:
.LFB6:
	.cfi_startproc
	endbr64
	pushq	%rbp
	.cfi_def_cfa_offset 16
	.cfi_offset 6, -16
	movq	%rsp, %rbp
	.cfi_def_cfa_register 6
	subq	$64, %rsp
	movq	%fs:40, %rax
	movq	%rax, -8(%rbp)
	xorl	%eax, %eax
	leaq	.LC0(%rip), %rax
	movq	%rax, %rdi
	movl	$0, %eax
	call	printf@PLT
	leaq	-48(%rbp), %rax
	movq	%rax, %rdi
	call	gets@PLT
	movl	$32, %edi
	call	malloc@PLT
	movq	%rax, -56(%rbp)
	leaq	-48(%rbp), %rdx
	movq	-56(%rbp), %rax
	movq	%rdx, %rsi
	movq	%rax, %rdi
	call	strcpy@PLT
	movq	-56(%rbp), %rax
	movq	-8(%rbp), %rdx
	subq	%fs:40, %rdx
	je	.L3
	call	__stack_chk_fail@PLT
.L3:
	leave
	.cfi_def_cfa 7, 8
	ret
	.cfi_endproc
.LFE6:
	.size	login, .-login
	.section	.rodata
.LC1:
	.string	"User: %s\n"
	.text
	.globl	main
	.type	main, @function
main:
.LFB7:
	.cfi_startproc
	endbr64
	pushq	%rbp
	.cfi_def_cfa_offset 16
	.cfi_offset 6, -16
	movq	%rsp, %rbp
	.cfi_def_cfa_register 6
	subq	$16, %rsp
	movl	$0, %eax
	call	login
	movq	%rax, -8(%rbp)
	movq	-8(%rbp), %rax
	movq	%rax, %rsi
	leaq	.LC1(%rip), %rax
	movq	%rax, %rdi
	movl	$0, %eax
	call	printf@PLT
	movl	$0, %eax
	leave
	.cfi_def_cfa 7, 8
	ret
	.cfi_endproc
.LFE7:
	.size	main, .-main
	.ident	"GCC: (Ubuntu 13.2.0-23ubuntu4) 13.2.0"
	.section	.note.GNU-stack,"",@progbits
	.section	.note.gnu.property,"a"
	.align 8
	.long	1f - 0f
	.long	4f - 1f
	.long	5
0:
	.string	"GNU"
1:
	.align 8
	.long	0xc0000002
	.long	3f - 2f
2:
	.long	0x3
3:
	.align 8
4:
